; Function Attrs: inlinehint nounwind uwtable
define internal fastcc void @pmix_bfrops_base_tma_coord_free(ptr noundef %0, i64 noundef %1, ptr noundef %2) unnamed_addr #4 {
  %.not = icmp eq ptr %0, null
  br i1 %.not, label %pmix_tma_free.exit, label %.preheader

.preheader:                                       ; preds = %3
  %.not11 = icmp eq i64 %1, 0
  br i1 %.not11, label %._crit_edge, label %.lr.ph

.lr.ph:                                           ; preds = %.preheader
  %.not.i.i = icmp eq ptr %2, null
  %4 = getelementptr inbounds nuw i8, ptr %2, i64 40
  br i1 %.not.i.i, label %.lr.ph.split.us, label %.lr.ph.split

.lr.ph.split.us:                                  ; preds = %.lr.ph, %pmix_bfrops_base_tma_coord_destruct.exit.us
  %.010.us = phi i64 [ %8, %pmix_bfrops_base_tma_coord_destruct.exit.us ], [ 0, %.lr.ph ]
  %5 = getelementptr inbounds nuw %struct.pmix_coord, ptr %0, i64 %.010.us
  store i8 0, ptr %5, align 8, !tbaa !106
  %6 = getelementptr inbounds nuw i8, ptr %5, i64 8
  %7 = load ptr, ptr %6, align 8, !tbaa !109
  %.not.i9.us = icmp eq ptr %7, null
  br i1 %.not.i9.us, label %pmix_bfrops_base_tma_coord_destruct.exit.us, label %pmix_tma_free.exit.i.us

pmix_tma_free.exit.i.us:                          ; preds = %.lr.ph.split.us
  tail call void @free(ptr noundef nonnull %7) #17
  tail call void @llvm.memset.p0.i64(ptr noundef nonnull align 8 dereferenceable(16) %6, i8 0, i64 16, i1 false)
  br label %pmix_bfrops_base_tma_coord_destruct.exit.us

pmix_bfrops_base_tma_coord_destruct.exit.us:      ; preds = %pmix_tma_free.exit.i.us, %.lr.ph.split.us
  %8 = add nuw i64 %.010.us, 1
  %exitcond13.not = icmp eq i64 %8, %1
  br i1 %exitcond13.not, label %._crit_edge, label %.lr.ph.split.us, !llvm.loop !129

._crit_edge:                                      ; preds = %pmix_bfrops_base_tma_coord_destruct.exit, %pmix_bfrops_base_tma_coord_destruct.exit.us, %.preheader
  %.not.i = icmp eq ptr %2, null
  br i1 %.not.i, label %12, label %9

9:                                                ; preds = %._crit_edge
  %10 = getelementptr inbounds nuw i8, ptr %2, i64 40
  %11 = load ptr, ptr %10, align 8, !tbaa !38
  tail call void %11(ptr noundef nonnull %2, ptr noundef nonnull %0) #17
  br label %pmix_tma_free.exit

12:                                               ; preds = %._crit_edge
  tail call void @free(ptr noundef nonnull %0) #17
  br label %pmix_tma_free.exit

.lr.ph.split:                                     ; preds = %.lr.ph, %pmix_bfrops_base_tma_coord_destruct.exit
  %.010 = phi i64 [ %17, %pmix_bfrops_base_tma_coord_destruct.exit ], [ 0, %.lr.ph ]
  %13 = getelementptr inbounds nuw %struct.pmix_coord, ptr %0, i64 %.010
  store i8 0, ptr %13, align 8, !tbaa !106
  %14 = getelementptr inbounds nuw i8, ptr %13, i64 8
  %15 = load ptr, ptr %14, align 8, !tbaa !109
  %.not.i9 = icmp eq ptr %15, null
  br i1 %.not.i9, label %pmix_bfrops_base_tma_coord_destruct.exit, label %pmix_tma_free.exit.i

pmix_tma_free.exit.i:                             ; preds = %.lr.ph.split
  %16 = load ptr, ptr %4, align 8, !tbaa !38
  tail call void %16(ptr noundef nonnull %2, ptr noundef nonnull %15) #17
  tail call void @llvm.memset.p0.i64(ptr noundef nonnull align 8 dereferenceable(16) %14, i8 0, i64 16, i1 false)
  br label %pmix_bfrops_base_tma_coord_destruct.exit

pmix_bfrops_base_tma_coord_destruct.exit:         ; preds = %.lr.ph.split, %pmix_tma_free.exit.i
  %17 = add nuw i64 %.010, 1
  %exitcond.not = icmp eq i64 %17, %1
  br i1 %exitcond.not, label %._crit_edge, label %.lr.ph.split, !llvm.loop !129

pmix_tma_free.exit:                               ; preds = %12, %9, %3
  ret void
}